; Function Attrs: nounwind uwtable
define internal void @_WriteBuf(ptr noundef readonly captures(none) %0, ptr noundef captures(none) %1, i64 noundef %2) #0 {
  %4 = getelementptr inbounds nuw i8, ptr %0, i64 488
  %5 = load ptr, ptr %4, align 8
  %6 = tail call i64 @fwrite(ptr noundef %1, i64 noundef 1, i64 noundef %2, ptr noundef %5)
  %.not = icmp eq i64 %6, %2
  br i1 %.not, label %8, label %7

7:                                                ; preds = %3
  tail call void (i32, i32, ptr, ...) @pg_log_generic(i32 noundef 4, i32 noundef 0, ptr noundef nonnull @.str.18) #7
  tail call void @exit_nicely(i32 noundef 1) #8
  unreachable

8:                                                ; preds = %3
  ret void
}